Certificate:
    Data:
        Version: 3 (0x2)
        Serial Number: 2 (0x2)
        Signature Algorithm: sha1WithRSAEncryption
        Issuer: DC=org, DC=simple, O=Simple Inc, OU=Simple Signing CA, CN=Simple Signing CA
        Validity
            Not Before: May  4 23:41:47 2018 GMT
            Not After : May  3 23:41:47 2020 GMT
        Subject: DC=org, DC=simple, O=Simple Inc, CN=www.simple.org
        Subject Public Key Info:
            Public Key Algorithm: rsaEncryption
            RSA Public Key: (2048 bit)
                Modulus (2048 bit):
                    00:ac:32:c9:5a:ed:ac:f4:91:b7:86:7e:4f:7f:1a:
                    a9:c9:29:60:17:0f:16:62:8b:33:16:46:d5:6b:29:
                    d3:68:f5:af:5a:76:0c:82:02:f8:cf:02:63:dd:db:
                    ee:2a:89:1c:2f:fd:4d:4a:fe:fa:40:6c:32:1e:1c:
                    24:b0:a2:dc:88:a0:69:2d:58:d0:16:9d:1d:d2:69:
                    4e:7b:f5:a5:8a:c3:b4:6a:7c:57:98:39:17:03:e4:
                    01:4f:a8:fe:de:f3:6c:1d:d0:cf:97:a2:b2:4a:28:
                    30:24:7a:aa:79:14:59:f5:f6:a7:32:21:b5:10:6e:
                    75:53:56:94:98:64:16:da:f0:cf:b7:ef:e2:83:e6:
                    01:8e:71:c9:9f:29:cc:17:56:2c:41:24:ee:25:83:
                    6a:28:d6:96:7b:d6:94:bc:80:5f:aa:29:ab:fc:b4:
                    62:29:65:ae:a8:ec:dd:1d:ec:86:e2:7c:41:a6:06:
                    31:44:b0:b5:2b:3e:6b:9d:79:ea:da:90:f9:4b:d4:
                    10:7f:5d:4c:f8:25:52:79:e5:1c:ee:86:f4:2f:e3:
                    f7:b5:dc:5f:10:7c:26:fa:7f:64:54:37:7c:c8:9b:
                    db:8f:99:c4:c2:81:51:31:2a:0d:b7:35:74:59:0d:
                    57:79:6b:5d:26:be:76:20:41:3e:99:a7:db:67:67:
                    50:9b
                Exponent: 65537 (0x10001)
        X509v3 extensions:
            X509v3 Key Usage: critical
                Digital Signature, Key Encipherment
            X509v3 Basic Constraints: 
                CA:FALSE
            X509v3 Extended Key Usage: 
                TLS Web Server Authentication, TLS Web Client Authentication
            X509v3 Subject Key Identifier: 
                49:BE:E9:3B:2A:05:80:A7:79:78:DA:F8:33:10:C9:76:99:5D:BE:DC
            X509v3 Authority Key Identifier: 
                keyid:75:41:E8:1F:CB:42:05:82:8C:23:B7:E1:EF:C9:6B:BA:FA:B2:DF:F5

            X509v3 Subject Alternative Name: 
                DNS:www.simple.org
    Signature Algorithm: sha1WithRSAEncryption
        26:d6:ff:a9:41:88:a9:93:9f:ec:ed:1d:77:96:97:95:17:47:
        70:b9:97:59:fe:b2:eb:7b:ab:ed:b5:16:28:b8:f0:47:cb:f6:
        88:48:fb:ea:f1:0b:56:5b:95:94:d5:c7:eb:b8:93:40:3f:3f:
        8f:a2:ef:e5:4f:78:6e:cd:7f:0d:67:04:02:5c:09:09:7b:cc:
        67:a0:e7:0e:cb:32:2f:83:54:ba:0e:08:56:20:d2:64:c8:f1:
        93:36:d0:1a:75:d2:a5:03:cf:3d:fb:d4:e3:ea:b6:bd:a9:bb:
        62:e3:46:3f:2a:34:a6:61:ee:be:56:35:7e:9f:eb:3d:b1:d7:
        d9:f9:95:c7:41:a3:c1:b3:26:d6:a0:ae:fb:14:1d:64:1a:d7:
        6e:92:0c:ba:2a:58:df:92:99:dd:1a:69:a9:0a:c8:5b:32:aa:
        5d:20:d2:cf:f1:a0:20:2f:de:0a:99:b1:80:e2:5b:39:e4:c5:
        00:c4:60:f9:a8:c7:df:06:97:06:5f:92:a2:e3:ad:ce:eb:1e:
        a7:f3:ac:52:6e:57:29:7b:98:ab:05:16:dd:12:06:6f:35:f3:
        0c:5c:3c:22:c2:06:80:37:4c:a6:21:5f:a6:40:43:97:64:22:
        fe:fc:49:b4:1a:9f:c5:5f:a9:cd:d4:8c:b8:52:b2:fd:d8:c0:
        6f:41:05:21
-----BEGIN CERTIFICATE-----
MIID6TCCAtGgAwIBAgIBAjANBgkqhkiG9w0BAQUFADB6MRMwEQYKCZImiZPyLGQB
GRYDb3JnMRYwFAYKCZImiZPyLGQBGRYGc2ltcGxlMRMwEQYDVQQKDApTaW1wbGUg
SW5jMRowGAYDVQQLDBFTaW1wbGUgU2lnbmluZyBDQTEaMBgGA1UEAwwRU2ltcGxl
IFNpZ25pbmcgQ0EwHhcNMTgwNTA0MjM0MTQ3WhcNMjAwNTAzMjM0MTQ3WjBbMRMw
EQYKCZImiZPyLGQBGRYDb3JnMRYwFAYKCZImiZPyLGQBGRYGc2ltcGxlMRMwEQYD
VQQKDApTaW1wbGUgSW5jMRcwFQYDVQQDDA53d3cuc2ltcGxlLm9yZzCCASIwDQYJ
KoZIhvcNAQEBBQADggEPADCCAQoCggEBAKwyyVrtrPSRt4Z+T38aqckpYBcPFmKL
MxZG1Wsp02j1r1p2DIIC+M8CY93b7iqJHC/9TUr++kBsMh4cJLCi3IigaS1Y0Bad
HdJpTnv1pYrDtGp8V5g5FwPkAU+o/t7zbB3Qz5eiskooMCR6qnkUWfX2pzIhtRBu
dVNWlJhkFtrwz7fv4oPmAY5xyZ8pzBdWLEEk7iWDaijWlnvWlLyAX6opq/y0Yill
rqjs3R3shuJ8QaYGMUSwtSs+a5156tqQ+UvUEH9dTPglUnnlHO6G9C/j97XcXxB8
Jvp/ZFQ3fMib24+ZxMKBUTEqDbc1dFkNV3lrXSa+diBBPpmn22dnUJsCAwEAAaOB
mDCBlTAOBgNVHQ8BAf8EBAMCBaAwCQYDVR0TBAIwADAdBgNVHSUEFjAUBggrBgEF
BQcDAQYIKwYBBQUHAwIwHQYDVR0OBBYEFEm+6TsqBYCneXja+DMQyXaZXb7cMB8G
A1UdIwQYMBaAFHVB6B/LQgWCjCO34e/Ja7r6st/1MBkGA1UdEQQSMBCCDnd3dy5z
aW1wbGUub3JnMA0GCSqGSIb3DQEBBQUAA4IBAQAm1v+pQYipk5/s7R13lpeVF0dw
uZdZ/rLre6vttRYouPBHy/aISPvq8QtWW5WU1cfruJNAPz+Pou/lT3huzX8NZwQC
XAkJe8xnoOcOyzIvg1S6DghWINJkyPGTNtAaddKlA889+9Tj6ra9qbti40Y/KjSm
Ye6+VjV+n+s9sdfZ+ZXHQaPBsybWoK77FB1kGtdukgy6KljfkpndGmmpCshbMqpd
INLP8aAgL94KmbGA4ls55MUAxGD5qMffBpcGX5Ki463O6x6n86xSblcpe5irBRbd
EgZvNfMMXDwiwgaAN0ymIV+mQEOXZCL+/Em0Gp/FX6nN1Iy4UrL92MBvQQUh
-----END CERTIFICATE-----
