-----BEGIN RSA PRIVATE KEY-----
Proc-Type: 4,ENCRYPTED
DEK-Info: DES-EDE3-CBC,C34EE7AC1E1126E3

7LafgZ3Usv97dB7G2DDuMWZw4q2uRJxnx1qc1h8U2h5a2e97cGApa/w/d8Y0/lac
kjMCB/nnnmpcm0Vqjbf5kSQVcNojSp/FkpIEP6kyPqxmT4M0GRiiUslal6+uspwu
G2t1JV9vMXIsSKulQxN8GHEn+Y4FD/QqYPiF8zERHKiFHUo9UUYx+cHmfrU57Sej
ESc680z2xdo00NSDejujOs3Vzy+G/gdQbFjn2vlJSXOKgeXr8z8f9aJ0lNadRG3+
57VLpleWZrqocTuBc1EK2alldUvtcsBG4cm4RzmISxHdlsHJOx4Skmwu8aidwG/S
9dAL4w/eTngMJmF7ftWwHsJ3M5sXq5+ggqRtciliBtr5stbC5bthABda3cpyxSH8
FdlCOZtWZh/gkjgemf9G84WGiR12ACqGq9p0HITSok14CiDs1fGFrxjmS5zivEJy
0a+DbZX2rRhL/wXOEQRjPiWMcPCWMiu5fhrgZ7V03twd1+Xguz1vNzRsAt/Zl11A
uWmK8HSkV0gKSlVs3jv0Ji/cEEJVsa7MDZ7DKYarLh+S3sLx+aX2Bsj4fPz13CKI
MHVyEpq6c+bjxD9NCvBD73k3HKhlugt8D1+VH8PvQLAVX7dMlVRA5QWE4AhkE6lK
wptG+JXUHYM7Lr4lahf2m7DZhjgbJDkRjrg4CP4ZKEut8AnGaLdZ//+/pUIxKnI0
QV+50i1QRDegIuJVIk5yxpDJW5ipa6FrPBtIcEFy+BVZhPgcvQN2tEz6NrgEwZJT
SqLj9ujEo9lGJDTlJJa2R9jSAw3Ivzggb50wUkLdPlUDD2PtTQgZSkOeCEV1Ahs9
ePMsO2+YOqh8ybm156hCGyyVk662pjsYMgMmWy50Ent2HZxQSx/RoiavsWgkii3d
RzuajlYQBru7OtSrofOliSFZ3FJpd8yaMN7biL999In8twN052XJ0BQNLzS4PgSy
LrSqZdUpxk7KB5gDCoUVOrDAAqMBD14mg2MCSSosTfTjznCNb60GiLMYRbtbkH+G
jsN5x/0ZggHOvA2OIfjd+4AXMEV0ZFSviYa788re62l42z7tAerPMQzd74dEV09l
62uCKExu0iudck6lajOqTgZqE5gj6Y+J46YBATXgYJd2SnPjH59BZHVhWT38aoWb
56+EBkzzz9g0JaOpHnpP64up1hrsyy4CDEwZNyispUTsdh+41eT6A88Zzz8i92j3
/rC6H5COYaq9aS1p6I511xxxH6Yyu7GEAumrOK6a/jdbYqqdG0IloPUBwmrYNx95
v3m5vHV0GE/JHJSPxUovnrE9U+rdwH/6k6sXFO5FY3Drh5+SGVYPPN98c0vVjBD7
eayyjMYd2oatpqk9oqlb/AlilZ2/0LE3qz7qG9B9OlANvmOmI528pYLsSSdswT9g
Jt5qso7qRx/QbFJ4PtM2M1RPLqlf32/6o1xtEN0CO/EpO/gU+PU/v62lYJEiGnS2
wS8wjdYysRpjBBCGNgyCPayFsBSvMxdkwMi38Wq6oeyMZNficmOzPxHA7kDU3yZy
OTEIHlQDmrCfEJLlPePyvod4ab7brbMhOdBcnf62dduYa4uw+HFUJdOCVMgVnyUk
-----END RSA PRIVATE KEY-----
Certificate:
    Data:
        Version: 3 (0x2)
        Serial Number: 1 (0x1)
        Signature Algorithm: sha1WithRSAEncryption
        Issuer: DC=org, DC=simple, O=Simple Inc, OU=Simple Signing CA, CN=Simple Signing CA
        Validity
            Not Before: May  4 23:41:03 2018 GMT
            Not After : May  3 23:41:03 2020 GMT
        Subject: DC=org, DC=simple, O=Simple Inc, CN=Fred Flinstone
        Subject Public Key Info:
            Public Key Algorithm: rsaEncryption
            RSA Public Key: (2048 bit)
                Modulus (2048 bit):
                    00:c1:f8:9b:03:16:c9:e7:7d:e4:0d:1e:32:59:02:
                    f9:12:4e:b2:f6:41:ed:fc:96:bc:04:b2:4c:5f:36:
                    64:4e:50:82:18:4f:b4:a4:a0:15:43:50:d5:6d:d7:
                    45:43:47:b5:15:f6:84:63:2a:21:ef:8e:4c:bb:3c:
                    6c:e5:c1:e9:82:80:1a:8d:71:b0:bf:74:a1:d0:99:
                    6a:a4:4e:0a:15:86:11:53:1f:33:80:dc:f0:56:6c:
                    ef:ff:81:47:eb:3e:88:76:0b:bb:40:da:a9:ad:35:
                    42:28:05:df:7f:5e:91:39:49:ca:1a:73:fb:23:e8:
                    c7:77:86:0c:b6:08:03:b3:f7:d0:7d:a2:38:f8:59:
                    5b:bd:74:a2:23:ca:35:ea:f9:06:4b:54:b4:4b:17:
                    73:c9:2e:d4:f3:39:ea:99:31:95:85:bb:53:70:e9:
                    8c:89:23:97:83:67:08:b3:ea:af:fa:60:5e:81:b1:
                    fd:b9:9b:ca:98:a4:ec:89:fe:bf:6d:36:3a:51:23:
                    95:12:89:e9:be:b1:65:85:e5:d6:ca:f6:38:2f:2b:
                    0b:25:ea:dc:a9:47:c1:28:1b:e2:24:b3:e4:01:c4:
                    a7:bc:09:04:57:13:aa:81:77:7c:a8:ea:a5:17:f1:
                    e5:95:f0:10:58:2a:8d:52:53:0f:bb:f2:11:02:f5:
                    f5:97
                Exponent: 65537 (0x10001)
        X509v3 extensions:
            X509v3 Key Usage: critical
                Digital Signature, Key Encipherment
            X509v3 Basic Constraints: 
                CA:FALSE
            X509v3 Extended Key Usage: 
                E-mail Protection, TLS Web Client Authentication
            X509v3 Subject Key Identifier: 
                6D:9C:24:C6:E6:0A:77:2B:80:29:9F:58:0A:1F:21:BB:69:EE:E4:C8
            X509v3 Authority Key Identifier: 
                keyid:75:41:E8:1F:CB:42:05:82:8C:23:B7:E1:EF:C9:6B:BA:FA:B2:DF:F5

            X509v3 Subject Alternative Name: 
                email:fred@simple.org
    Signature Algorithm: sha1WithRSAEncryption
        57:19:87:35:2f:48:bc:c0:ad:b6:83:c3:dc:c2:c6:aa:26:d6:
        36:d3:86:e4:c5:37:6a:6b:dc:cf:f8:09:d0:5a:b1:3f:f0:d3:
        9e:b1:b3:b2:d5:75:6e:1d:28:a7:4a:fb:06:a4:a2:29:d5:69:
        38:9e:2e:fe:de:55:4d:3d:31:f6:ab:b2:7c:78:ec:bf:e5:14:
        d2:bd:66:a0:a1:85:23:b9:f5:bc:c6:86:d9:01:76:67:e1:7f:
        22:d9:43:8e:b8:91:7d:a7:0b:e8:01:69:41:67:47:1d:3a:71:
        1a:63:ea:00:35:71:b0:fb:c9:92:e1:d8:a7:74:3d:08:e2:ca:
        70:f7:5c:07:7d:d9:dc:36:cc:cf:f9:15:94:7e:75:d8:37:9c:
        38:1a:1b:50:4b:05:e3:5c:27:3b:56:a9:d4:14:02:36:f3:af:
        5e:95:78:a8:db:35:a6:c3:e0:8a:a4:56:78:4c:6a:99:dd:ce:
        15:7b:02:96:cb:a3:e8:72:5c:2b:93:56:d4:df:2c:00:e2:74:
        f0:6c:f5:76:60:5a:9a:70:20:06:9e:f1:7d:1c:dd:59:c4:34:
        aa:a6:0f:4f:ae:66:72:87:ea:eb:33:40:1d:e0:ee:fe:14:ed:
        70:b1:19:a5:78:93:1d:ec:0f:a0:f6:6c:4c:08:af:ee:1c:67:
        2a:d5:14:78
-----BEGIN CERTIFICATE-----
MIID6jCCAtKgAwIBAgIBATANBgkqhkiG9w0BAQUFADB6MRMwEQYKCZImiZPyLGQB
GRYDb3JnMRYwFAYKCZImiZPyLGQBGRYGc2ltcGxlMRMwEQYDVQQKDApTaW1wbGUg
SW5jMRowGAYDVQQLDBFTaW1wbGUgU2lnbmluZyBDQTEaMBgGA1UEAwwRU2ltcGxl
IFNpZ25pbmcgQ0EwHhcNMTgwNTA0MjM0MTAzWhcNMjAwNTAzMjM0MTAzWjBbMRMw
EQYKCZImiZPyLGQBGRYDb3JnMRYwFAYKCZImiZPyLGQBGRYGc2ltcGxlMRMwEQYD
VQQKDApTaW1wbGUgSW5jMRcwFQYDVQQDDA5GcmVkIEZsaW5zdG9uZTCCASIwDQYJ
KoZIhvcNAQEBBQADggEPADCCAQoCggEBAMH4mwMWyed95A0eMlkC+RJOsvZB7fyW
vASyTF82ZE5QghhPtKSgFUNQ1W3XRUNHtRX2hGMqIe+OTLs8bOXB6YKAGo1xsL90
odCZaqROChWGEVMfM4Dc8FZs7/+BR+s+iHYLu0Daqa01QigF339ekTlJyhpz+yPo
x3eGDLYIA7P30H2iOPhZW710oiPKNer5BktUtEsXc8ku1PM56pkxlYW7U3DpjIkj
l4NnCLPqr/pgXoGx/bmbypik7In+v202OlEjlRKJ6b6xZYXl1sr2OC8rCyXq3KlH
wSgb4iSz5AHEp7wJBFcTqoF3fKjqpRfx5ZXwEFgqjVJTD7vyEQL19ZcCAwEAAaOB
mTCBljAOBgNVHQ8BAf8EBAMCBaAwCQYDVR0TBAIwADAdBgNVHSUEFjAUBggrBgEF
BQcDBAYIKwYBBQUHAwIwHQYDVR0OBBYEFG2cJMbmCncrgCmfWAofIbtp7uTIMB8G
A1UdIwQYMBaAFHVB6B/LQgWCjCO34e/Ja7r6st/1MBoGA1UdEQQTMBGBD2ZyZWRA
c2ltcGxlLm9yZzANBgkqhkiG9w0BAQUFAAOCAQEAVxmHNS9IvMCttoPD3MLGqibW
NtOG5MU3amvcz/gJ0FqxP/DTnrGzstV1bh0op0r7BqSiKdVpOJ4u/t5VTT0x9quy
fHjsv+UU0r1moKGFI7n1vMaG2QF2Z+F/ItlDjriRfacL6AFpQWdHHTpxGmPqADVx
sPvJkuHYp3Q9COLKcPdcB33Z3DbMz/kVlH512DecOBobUEsF41wnO1ap1BQCNvOv
XpV4qNs1psPgiqRWeExqmd3OFXsClsuj6HJcK5NW1N8sAOJ08Gz1dmBamnAgBp7x
fRzdWcQ0qqYPT65mcofq6zNAHeDu/hTtcLEZpXiTHewPoPZsTAiv7hxnKtUUeA==
-----END CERTIFICATE-----
