Certificate:
    Data:
        Version: 3 (0x2)
        Serial Number: 1 (0x1)
        Signature Algorithm: sha1WithRSAEncryption
        Issuer: DC=org, DC=simple, O=Simple Inc, OU=Simple Root CA, CN=Simple Root CA
        Validity
            Not Before: May  4 23:35:47 2018 GMT
            Not After : May  3 23:35:47 2028 GMT
        Subject: DC=org, DC=simple, O=Simple Inc, OU=Simple Root CA, CN=Simple Root CA
        Subject Public Key Info:
            Public Key Algorithm: rsaEncryption
            RSA Public Key: (2048 bit)
                Modulus (2048 bit):
                    00:bb:f5:0a:e8:93:79:20:af:bb:5b:72:df:1f:e9:
                    25:73:3a:17:ef:32:2a:86:7e:cc:d1:46:30:01:bf:
                    3b:27:ae:99:59:b1:f1:a5:2f:51:97:c4:cf:d8:2d:
                    3c:8a:83:64:a8:33:c6:56:c8:93:6e:bb:d5:75:26:
                    c6:d9:d9:b8:14:a2:8a:15:42:ce:4f:cf:a8:cf:33:
                    97:93:dd:ac:fb:3a:79:3b:bf:d3:e7:49:b7:72:28:
                    5d:65:0b:a2:16:48:56:3a:a0:63:66:06:48:fc:7c:
                    b0:96:ac:26:85:24:f5:b3:04:7f:63:2c:d8:ec:1a:
                    c0:27:d0:2e:66:0b:18:80:b9:a6:0d:da:23:18:b0:
                    4e:73:cc:f2:e9:a6:c2:c6:87:08:f5:41:e9:5a:46:
                    4b:8d:7a:92:f0:1d:06:1a:d7:89:70:d0:1a:e6:8e:
                    47:fa:3f:e5:80:1d:a6:ab:5a:95:9c:e4:17:09:34:
                    5f:1e:06:c3:7e:c1:f4:33:bc:bf:2e:c8:ca:0f:05:
                    2f:76:15:0c:36:25:3f:39:14:67:02:2d:1a:18:6c:
                    88:3d:e7:b6:da:98:91:a7:14:0c:7c:eb:9c:7c:60:
                    c8:29:52:bb:03:0f:c9:62:58:40:48:35:d0:97:d0:
                    94:e0:d3:d5:ba:c1:f0:ed:fc:e3:19:11:4d:1a:c5:
                    23:e1
                Exponent: 65537 (0x10001)
        X509v3 extensions:
            X509v3 Key Usage: critical
                Certificate Sign, CRL Sign
            X509v3 Basic Constraints: critical
                CA:TRUE
            X509v3 Subject Key Identifier: 
                7C:E9:F3:8E:25:5F:97:4B:9F:EF:88:66:0D:92:90:9E:9F:5A:D1:1D
            X509v3 Authority Key Identifier: 
                keyid:7C:E9:F3:8E:25:5F:97:4B:9F:EF:88:66:0D:92:90:9E:9F:5A:D1:1D

    Signature Algorithm: sha1WithRSAEncryption
        6a:fd:19:18:a1:57:db:68:71:2c:7a:e5:50:ff:a9:3f:05:39:
        aa:df:dc:70:e5:99:ee:f6:91:75:43:d8:4d:3a:e9:82:10:45:
        4d:65:74:31:55:c5:9c:98:25:53:48:7b:7a:a7:f4:01:c2:d2:
        f1:47:4a:eb:a1:c1:ab:2b:67:be:e1:f9:4b:a9:ec:9a:f5:86:
        1b:48:6a:85:a8:7f:af:f7:94:fa:54:e5:ed:48:1a:ce:80:6d:
        ab:e9:4c:8b:8a:e9:3f:df:ce:ba:db:9c:16:b1:93:95:4f:88:
        9d:65:49:93:2e:31:ea:08:a6:90:78:76:77:78:50:04:b9:af:
        06:e0:74:06:1c:7f:2b:5d:a0:70:8b:6b:b6:54:97:6b:f9:a1:
        50:2c:9d:8d:eb:5d:87:91:bb:f7:7e:f1:04:4a:35:be:f5:78:
        c8:2b:7f:0c:14:c9:13:79:6f:ab:2d:5b:30:e3:b5:b6:c1:a0:
        3d:a8:44:86:31:bb:2f:ac:38:cd:a8:bb:0e:46:84:dc:40:ad:
        84:fc:9b:a2:0b:b5:e1:10:c6:e1:73:0e:ac:75:41:4e:7c:12:
        9c:af:47:b6:44:7e:f7:ce:c8:5c:ce:3c:e9:72:81:47:21:27:
        f1:72:20:b5:81:45:d3:af:35:65:82:84:e5:b4:49:1e:21:b8:
        20:5b:48:fc
-----BEGIN CERTIFICATE-----
MIIDxjCCAq6gAwIBAgIBATANBgkqhkiG9w0BAQUFADB0MRMwEQYKCZImiZPyLGQB
GRYDb3JnMRYwFAYKCZImiZPyLGQBGRYGc2ltcGxlMRMwEQYDVQQKDApTaW1wbGUg
SW5jMRcwFQYDVQQLDA5TaW1wbGUgUm9vdCBDQTEXMBUGA1UEAwwOU2ltcGxlIFJv
b3QgQ0EwHhcNMTgwNTA0MjMzNTQ3WhcNMjgwNTAzMjMzNTQ3WjB0MRMwEQYKCZIm
iZPyLGQBGRYDb3JnMRYwFAYKCZImiZPyLGQBGRYGc2ltcGxlMRMwEQYDVQQKDApT
aW1wbGUgSW5jMRcwFQYDVQQLDA5TaW1wbGUgUm9vdCBDQTEXMBUGA1UEAwwOU2lt
cGxlIFJvb3QgQ0EwggEiMA0GCSqGSIb3DQEBAQUAA4IBDwAwggEKAoIBAQC79Qro
k3kgr7tbct8f6SVzOhfvMiqGfszRRjABvzsnrplZsfGlL1GXxM/YLTyKg2SoM8ZW
yJNuu9V1JsbZ2bgUoooVQs5Pz6jPM5eT3az7Onk7v9PnSbdyKF1lC6IWSFY6oGNm
Bkj8fLCWrCaFJPWzBH9jLNjsGsAn0C5mCxiAuaYN2iMYsE5zzPLppsLGhwj1Qela
RkuNepLwHQYa14lw0Brmjkf6P+WAHaarWpWc5BcJNF8eBsN+wfQzvL8uyMoPBS92
FQw2JT85FGcCLRoYbIg957bamJGnFAx865x8YMgpUrsDD8liWEBINdCX0JTg09W6
wfDt/OMZEU0axSPhAgMBAAGjYzBhMA4GA1UdDwEB/wQEAwIBBjAPBgNVHRMBAf8E
BTADAQH/MB0GA1UdDgQWBBR86fOOJV+XS5/viGYNkpCen1rRHTAfBgNVHSMEGDAW
gBR86fOOJV+XS5/viGYNkpCen1rRHTANBgkqhkiG9w0BAQUFAAOCAQEAav0ZGKFX
22hxLHrlUP+pPwU5qt/ccOWZ7vaRdUPYTTrpghBFTWV0MVXFnJglU0h7eqf0AcLS
8UdK66HBqytnvuH5S6nsmvWGG0hqhah/r/eU+lTl7UgazoBtq+lMi4rpP9/Outuc
FrGTlU+InWVJky4x6gimkHh2d3hQBLmvBuB0Bhx/K12gcItrtlSXa/mhUCydjetd
h5G7937xBEo1vvV4yCt/DBTJE3lvqy1bMOO1tsGgPahEhjG7L6w4zai7DkaE3ECt
hPybogu14RDG4XMOrHVBTnwSnK9HtkR+987IXM486XKBRyEn8XIgtYFF0681ZYKE
5bRJHiG4IFtI/A==
-----END CERTIFICATE-----
