Certificate:
    Data:
        Version: 3 (0x2)
        Serial Number: 2 (0x2)
        Signature Algorithm: sha1WithRSAEncryption
        Issuer: DC=org, DC=simple, O=Simple Inc, OU=Simple Root CA, CN=Simple Root CA
        Validity
            Not Before: May  4 23:36:41 2018 GMT
            Not After : May  3 23:36:41 2028 GMT
        Subject: DC=org, DC=simple, O=Simple Inc, OU=Simple Signing CA, CN=Simple Signing CA
        Subject Public Key Info:
            Public Key Algorithm: rsaEncryption
            RSA Public Key: (2048 bit)
                Modulus (2048 bit):
                    00:e9:64:83:a9:ea:63:eb:c8:45:e3:66:e4:e7:55:
                    89:c2:ad:94:b4:8c:84:4e:3f:50:1b:a9:b7:ae:f0:
                    70:4a:de:5a:c9:05:09:8b:34:a1:30:88:0e:a6:06:
                    9b:09:fb:97:3c:85:64:d9:2b:ec:fe:2f:49:50:e8:
                    3e:f4:39:83:00:b5:ad:6b:99:4b:ae:90:99:cf:4f:
                    37:de:dc:f2:cc:47:04:bf:91:0c:9f:c5:7e:e6:2a:
                    b8:62:f9:38:c6:b9:7f:88:95:04:89:11:9d:68:14:
                    5a:2a:65:49:ba:b7:7f:52:fc:63:e7:93:38:a8:04:
                    96:da:d2:9c:ce:0c:26:6e:5d:b2:40:a1:2f:aa:b1:
                    3a:1c:97:a5:5d:22:bd:99:c0:2f:01:7e:68:b4:84:
                    58:ee:07:46:49:63:a3:6d:74:ee:00:50:b9:97:17:
                    67:38:e8:4f:dc:ad:fc:ac:11:a8:ba:5e:22:a4:c9:
                    4e:e9:a9:64:9f:7f:7a:6b:24:68:c5:42:b3:d9:63:
                    fd:00:2b:e3:de:af:7a:30:46:8e:bc:cf:09:fb:ec:
                    db:2b:a3:e9:17:2a:63:a5:eb:35:b2:61:c1:8b:8b:
                    53:7c:aa:8f:b5:68:79:b9:31:32:e7:e1:f5:ea:58:
                    26:65:c4:15:3a:16:28:20:1f:4e:6d:a5:5c:d3:56:
                    f8:2d
                Exponent: 65537 (0x10001)
        X509v3 extensions:
            X509v3 Key Usage: critical
                Certificate Sign, CRL Sign
            X509v3 Basic Constraints: critical
                CA:TRUE, pathlen:0
            X509v3 Subject Key Identifier: 
                75:41:E8:1F:CB:42:05:82:8C:23:B7:E1:EF:C9:6B:BA:FA:B2:DF:F5
            X509v3 Authority Key Identifier: 
                keyid:7C:E9:F3:8E:25:5F:97:4B:9F:EF:88:66:0D:92:90:9E:9F:5A:D1:1D

    Signature Algorithm: sha1WithRSAEncryption
        5e:55:c7:5b:12:e6:24:39:f4:ff:46:04:cc:2a:1c:18:e9:3b:
        02:cc:16:65:2e:1f:1b:9b:96:10:27:6f:a3:d5:f1:52:ae:7d:
        cb:42:9e:f0:40:a1:a0:f0:94:3d:2a:16:e1:1f:07:d8:2a:29:
        dc:44:5d:8b:b4:c2:07:7b:c1:2b:cf:56:16:85:98:58:13:84:
        97:e8:5f:ea:66:81:77:22:a0:df:43:5f:e4:b8:56:7e:bb:63:
        f4:b5:9d:7c:d3:1b:86:e9:0a:bd:b9:85:dd:60:db:ae:71:91:
        0a:83:71:34:27:12:66:ce:d9:a0:d1:77:63:b8:8a:65:f2:45:
        8f:14:2e:18:5e:a3:96:e1:a2:8f:a9:ec:d1:a7:3c:fb:3a:7b:
        cc:90:ae:ba:b3:ae:c5:a2:a0:91:69:4d:1f:d9:0c:4d:36:35:
        04:30:9b:f2:bb:2b:28:46:62:39:84:d3:ae:2b:40:90:a6:3f:
        a8:d1:19:8b:b6:03:ed:d3:3e:80:46:6d:8a:91:ea:d1:a1:02:
        fb:58:55:12:c1:aa:b7:36:5f:b1:7d:38:46:35:60:e0:8a:ea:
        e7:4a:85:f9:cd:d9:6b:e7:6e:c4:ac:5c:ee:2a:cc:9e:9c:bc:
        24:34:07:ae:59:ed:75:c6:89:90:9a:2d:b3:8c:8e:f8:1f:e9:
        b6:73:c8:c6
-----BEGIN CERTIFICATE-----
MIIDzzCCAregAwIBAgIBAjANBgkqhkiG9w0BAQUFADB0MRMwEQYKCZImiZPyLGQB
GRYDb3JnMRYwFAYKCZImiZPyLGQBGRYGc2ltcGxlMRMwEQYDVQQKDApTaW1wbGUg
SW5jMRcwFQYDVQQLDA5TaW1wbGUgUm9vdCBDQTEXMBUGA1UEAwwOU2ltcGxlIFJv
b3QgQ0EwHhcNMTgwNTA0MjMzNjQxWhcNMjgwNTAzMjMzNjQxWjB6MRMwEQYKCZIm
iZPyLGQBGRYDb3JnMRYwFAYKCZImiZPyLGQBGRYGc2ltcGxlMRMwEQYDVQQKDApT
aW1wbGUgSW5jMRowGAYDVQQLDBFTaW1wbGUgU2lnbmluZyBDQTEaMBgGA1UEAwwR
U2ltcGxlIFNpZ25pbmcgQ0EwggEiMA0GCSqGSIb3DQEBAQUAA4IBDwAwggEKAoIB
AQDpZIOp6mPryEXjZuTnVYnCrZS0jIROP1Abqbeu8HBK3lrJBQmLNKEwiA6mBpsJ
+5c8hWTZK+z+L0lQ6D70OYMAta1rmUuukJnPTzfe3PLMRwS/kQyfxX7mKrhi+TjG
uX+IlQSJEZ1oFFoqZUm6t39S/GPnkzioBJba0pzODCZuXbJAoS+qsTocl6VdIr2Z
wC8Bfmi0hFjuB0ZJY6NtdO4AULmXF2c46E/crfysEai6XiKkyU7pqWSff3prJGjF
QrPZY/0AK+Per3owRo68zwn77Nsro+kXKmOl6zWyYcGLi1N8qo+1aHm5MTLn4fXq
WCZlxBU6FiggH05tpVzTVvgtAgMBAAGjZjBkMA4GA1UdDwEB/wQEAwIBBjASBgNV
HRMBAf8ECDAGAQH/AgEAMB0GA1UdDgQWBBR1Qegfy0IFgowjt+HvyWu6+rLf9TAf
BgNVHSMEGDAWgBR86fOOJV+XS5/viGYNkpCen1rRHTANBgkqhkiG9w0BAQUFAAOC
AQEAXlXHWxLmJDn0/0YEzCocGOk7AswWZS4fG5uWECdvo9XxUq59y0Ke8EChoPCU
PSoW4R8H2Cop3ERdi7TCB3vBK89WFoWYWBOEl+hf6maBdyKg30Nf5LhWfrtj9LWd
fNMbhukKvbmF3WDbrnGRCoNxNCcSZs7ZoNF3Y7iKZfJFjxQuGF6jluGij6ns0ac8
+zp7zJCuurOuxaKgkWlNH9kMTTY1BDCb8rsrKEZiOYTTritAkKY/qNEZi7YD7dM+
gEZtipHq0aEC+1hVEsGqtzZfsX04RjVg4Irq50qF+c3Za+duxKxc7irMnpy8JDQH
rlntdcaJkJots4yO+B/ptnPIxg==
-----END CERTIFICATE-----
